target datalayout = "e-m:e-p270:32:32-p271:32:32-p272:64:64-i64:64-i128:128-f80:128-n8:16:32:64-S128"
target triple = "x86_64-unknown-linux-gnu"

%"class.std::__cxx11::basic_string" = type { %"struct.std::__cxx11::basic_string<char>::_Alloc_hider", i64, %union.anon }
%"struct.std::__cxx11::basic_string<char>::_Alloc_hider" = type { ptr }
%union.anon = type { i64, [8 x i8] }
%"class.Assimp::MDLImporter" = type <{ %"class.Assimp::BaseImporter", i32, [4 x i8], %"class.std::__cxx11::basic_string", ptr, i32, [4 x i8], ptr, ptr, i32, %"struct.Assimp::MDL::HalfLife::HL1ImportSettings", [2 x i8] }>
%"class.Assimp::BaseImporter" = type { ptr, double, double, %"class.std::__cxx11::basic_string", %"class.std::__exception_ptr::exception_ptr", ptr }
%"class.std::__exception_ptr::exception_ptr" = type { ptr }
%"struct.Assimp::MDL::HalfLife::HL1ImportSettings" = type { i8, i8, i8, i8, i8, i8, i8, i8, i8, i8 }
%struct.aiTexture = type <{ i32, i32, [9 x i8], [7 x i8], ptr, %struct.aiString, [4 x i8] }>
%struct.aiString = type { i32, [1024 x i8] }
%struct.aiScene = type { i32, ptr, i32, ptr, i32, ptr, i32, ptr, i32, ptr, i32, ptr, i32, ptr, ptr, %struct.aiString, i32, ptr, ptr }

; Function Attrs: mustprogress nounwind uwtable
define linkonce_odr hidden void @_ZN8aiStringC2Ev(ptr noundef nonnull align 4 dereferenceable(1028) %this) unnamed_addr #0 comdat align 2 {
entry:
  %this.addr = alloca ptr, align 8
  store ptr %this, ptr %this.addr, align 8
  %this1 = load ptr, ptr %this.addr, align 8
  %length = getelementptr inbounds %struct.aiString, ptr %this1, i32 0, i32 0
  store i32 0, ptr %length, align 4
  %data = getelementptr inbounds %struct.aiString, ptr %this1, i32 0, i32 1
  %arrayidx = getelementptr inbounds [1024 x i8], ptr %data, i64 0, i64 0
  store i8 0, ptr %arrayidx, align 4
  ret void
}

; Function Attrs: mustprogress nounwind uwtable
define linkonce_odr hidden void @_ZN9aiTextureD2Ev(ptr noundef nonnull align 8 dereferenceable(1060) %this) unnamed_addr #0 comdat align 2 {
entry:
  %this.addr = alloca ptr, align 8
  store ptr %this, ptr %this.addr, align 8
  %this1 = load ptr, ptr %this.addr, align 8
  %pcData = getelementptr inbounds %struct.aiTexture, ptr %this1, i32 0, i32 4
  %0 = load ptr, ptr %pcData, align 8
  %isnull = icmp eq ptr %0, null
  br i1 %isnull, label %delete.end, label %delete.notnull

delete.notnull:                                   ; preds = %entry
  call void @_ZdaPv(ptr noundef %0) #18
  br label %delete.end

delete.end:                                       ; preds = %delete.notnull, %entry
  ret void
}

; Function Attrs: mustprogress nounwind uwtable
define linkonce_odr hidden void @_ZN9aiTextureC2Ev(ptr noundef nonnull align 8 dereferenceable(1060) %this) unnamed_addr #0 comdat align 2 {
entry:
  %this.addr = alloca ptr, align 8
  store ptr %this, ptr %this.addr, align 8
  %this1 = load ptr, ptr %this.addr, align 8
  %mWidth = getelementptr inbounds %struct.aiTexture, ptr %this1, i32 0, i32 0
  store i32 0, ptr %mWidth, align 8
  %mHeight = getelementptr inbounds %struct.aiTexture, ptr %this1, i32 0, i32 1
  store i32 0, ptr %mHeight, align 4
  %pcData = getelementptr inbounds %struct.aiTexture, ptr %this1, i32 0, i32 4
  store ptr null, ptr %pcData, align 8
  %mFilename = getelementptr inbounds %struct.aiTexture, ptr %this1, i32 0, i32 5
  call void @_ZN8aiStringC2Ev(ptr noundef nonnull align 4 dereferenceable(1028) %mFilename) #15
  %achFormatHint = getelementptr inbounds %struct.aiTexture, ptr %this1, i32 0, i32 2
  %arraydecay = getelementptr inbounds [9 x i8], ptr %achFormatHint, i64 0, i64 0
  call void @llvm.memset.p0.i64(ptr align 8 %arraydecay, i8 0, i64 9, i1 false)
  ret void
}

; Function Attrs: mustprogress uwtable
define hidden void @_ZN6Assimp11MDLImporter23CreateTexture_3DGS_MDL5EPKhjPj(ptr noundef nonnull align 8 dereferenceable(158) %this, ptr noundef %szData, i32 noundef %iType, ptr noundef %piSkip) #2 align 2 {
entry:
  %this.addr = alloca ptr, align 8
  %szData.addr = alloca ptr, align 8
  %iType.addr = alloca i32, align 4
  %piSkip.addr = alloca ptr, align 8
  %bNoRead = alloca i8, align 1
  %pcNew = alloca ptr, align 8
  %pc = alloca ptr, align 8
  %i = alloca i32, align 4
  store ptr %this, ptr %this.addr, align 8
  store ptr %szData, ptr %szData.addr, align 8
  store i32 %iType, ptr %iType.addr, align 4
  store ptr %piSkip, ptr %piSkip.addr, align 8
  %this1 = load ptr, ptr %this.addr, align 8
  %0 = load ptr, ptr %piSkip.addr, align 8
  %1 = load i32, ptr %0, align 4
  %cmp = icmp eq i32 %1, -1
  %frombool = zext i1 %cmp to i8
  store i8 %frombool, ptr %bNoRead, align 1
  %call = call noalias noundef nonnull ptr @_Znwm(i64 noundef 1064) #16
  call void @_ZN9aiTextureC2Ev(ptr noundef nonnull align 8 dereferenceable(1060) %call) #15
  store ptr %call, ptr %pcNew, align 8
  %2 = load ptr, ptr %szData.addr, align 8
  %add.ptr = getelementptr inbounds i8, ptr %2, i64 8
  call void @_ZN6Assimp11MDLImporter9SizeCheckEPKv(ptr noundef nonnull align 8 dereferenceable(158) %this1, ptr noundef %add.ptr)
  %3 = load ptr, ptr %szData.addr, align 8
  %4 = load i32, ptr %3, align 4
  %5 = load ptr, ptr %pcNew, align 8
  %mWidth = getelementptr inbounds %struct.aiTexture, ptr %5, i32 0, i32 0
  store i32 %4, ptr %mWidth, align 8
  %6 = load ptr, ptr %szData.addr, align 8
  %add.ptr2 = getelementptr inbounds i8, ptr %6, i64 4
  store ptr %add.ptr2, ptr %szData.addr, align 8
  %7 = load ptr, ptr %szData.addr, align 8
  %8 = load i32, ptr %7, align 4
  %9 = load ptr, ptr %pcNew, align 8
  %mHeight = getelementptr inbounds %struct.aiTexture, ptr %9, i32 0, i32 1
  store i32 %8, ptr %mHeight, align 4
  %10 = load ptr, ptr %szData.addr, align 8
  %add.ptr3 = getelementptr inbounds i8, ptr %10, i64 4
  store ptr %add.ptr3, ptr %szData.addr, align 8
  %11 = load i8, ptr %bNoRead, align 1
  %tobool = trunc i8 %11 to i1
  br i1 %tobool, label %if.then, label %if.end

if.then:                                          ; preds = %entry
  %12 = load ptr, ptr %pcNew, align 8
  %pcData = getelementptr inbounds %struct.aiTexture, ptr %12, i32 0, i32 4
  store ptr inttoptr (i64 -1 to ptr), ptr %pcData, align 8
  br label %if.end

if.end:                                           ; preds = %if.then, %entry
  %13 = load i32, ptr %iType.addr, align 4
  %cmp4 = icmp eq i32 6, %13
  br i1 %cmp4, label %if.then5, label %if.else

if.then5:                                         ; preds = %if.end
  %14 = load ptr, ptr %pcNew, align 8
  %mWidth6 = getelementptr inbounds %struct.aiTexture, ptr %14, i32 0, i32 0
  %15 = load i32, ptr %mWidth6, align 8
  %16 = load ptr, ptr %piSkip.addr, align 8
  store i32 %15, ptr %16, align 4
  %17 = load ptr, ptr %szData.addr, align 8
  %18 = load ptr, ptr %piSkip.addr, align 8
  %19 = load i32, ptr %18, align 4
  %idx.ext = zext i32 %19 to i64
  %add.ptr7 = getelementptr inbounds i8, ptr %17, i64 %idx.ext
  call void @_ZN6Assimp11MDLImporter9SizeCheckEPKv(ptr noundef nonnull align 8 dereferenceable(158) %this1, ptr noundef %add.ptr7)
  %20 = load i8, ptr %bNoRead, align 1
  %tobool8 = trunc i8 %20 to i1
  br i1 %tobool8, label %if.end23, label %if.then9

if.then9:                                         ; preds = %if.then5
  %21 = load ptr, ptr %pcNew, align 8
  %mHeight10 = getelementptr inbounds %struct.aiTexture, ptr %21, i32 0, i32 1
  store i32 0, ptr %mHeight10, align 4
  %22 = load ptr, ptr %pcNew, align 8
  %achFormatHint = getelementptr inbounds %struct.aiTexture, ptr %22, i32 0, i32 2
  %arrayidx = getelementptr inbounds [9 x i8], ptr %achFormatHint, i64 0, i64 0
  store i8 100, ptr %arrayidx, align 8
  %23 = load ptr, ptr %pcNew, align 8
  %achFormatHint11 = getelementptr inbounds %struct.aiTexture, ptr %23, i32 0, i32 2
  %arrayidx12 = getelementptr inbounds [9 x i8], ptr %achFormatHint11, i64 0, i64 1
  store i8 100, ptr %arrayidx12, align 1
  %24 = load ptr, ptr %pcNew, align 8
  %achFormatHint13 = getelementptr inbounds %struct.aiTexture, ptr %24, i32 0, i32 2
  %arrayidx14 = getelementptr inbounds [9 x i8], ptr %achFormatHint13, i64 0, i64 2
  store i8 115, ptr %arrayidx14, align 2
  %25 = load ptr, ptr %pcNew, align 8
  %achFormatHint15 = getelementptr inbounds %struct.aiTexture, ptr %25, i32 0, i32 2
  %arrayidx16 = getelementptr inbounds [9 x i8], ptr %achFormatHint15, i64 0, i64 3
  store i8 0, ptr %arrayidx16, align 1
  %26 = load ptr, ptr %pcNew, align 8
  %mWidth17 = getelementptr inbounds %struct.aiTexture, ptr %26, i32 0, i32 0
  %27 = load i32, ptr %mWidth17, align 8
  %conv = zext i32 %27 to i64
  %call18 = call noalias noundef nonnull ptr @_Znam(i64 noundef %conv) #16
  %28 = load ptr, ptr %pcNew, align 8
  %pcData19 = getelementptr inbounds %struct.aiTexture, ptr %28, i32 0, i32 4
  store ptr %call18, ptr %pcData19, align 8
  %29 = load ptr, ptr %pcNew, align 8
  %pcData20 = getelementptr inbounds %struct.aiTexture, ptr %29, i32 0, i32 4
  %30 = load ptr, ptr %pcData20, align 8
  %31 = load ptr, ptr %szData.addr, align 8
  %32 = load ptr, ptr %pcNew, align 8
  %mWidth21 = getelementptr inbounds %struct.aiTexture, ptr %32, i32 0, i32 0
  %33 = load i32, ptr %mWidth21, align 8
  %conv22 = zext i32 %33 to i64
  call void @llvm.memcpy.p0.p0.i64(ptr align 1 %30, ptr align 1 %31, i64 %conv22, i1 false)
  br label %if.end23

if.end23:                                         ; preds = %if.then9, %if.then5
  br label %if.end24

if.else:                                          ; preds = %if.end
  %34 = load ptr, ptr %szData.addr, align 8
  %35 = load i32, ptr %iType.addr, align 4
  %36 = load ptr, ptr %piSkip.addr, align 8
  %37 = load ptr, ptr %pcNew, align 8
  call void @_ZN6Assimp11MDLImporter21ParseTextureColorDataEPKhjPjP9aiTexture(ptr noundef nonnull align 8 dereferenceable(158) %this1, ptr noundef %34, i32 noundef %35, ptr noundef %36, ptr noundef %37)
  br label %if.end24

if.end24:                                         ; preds = %if.else, %if.end23
  %38 = load ptr, ptr %piSkip.addr, align 8
  %39 = load i32, ptr %38, align 4
  %conv25 = zext i32 %39 to i64
  %add = add i64 %conv25, 8
  %conv26 = trunc i64 %add to i32
  store i32 %conv26, ptr %38, align 4
  %40 = load i8, ptr %bNoRead, align 1
  %tobool27 = trunc i8 %40 to i1
  br i1 %tobool27, label %if.else66, label %if.then28

if.then28:                                        ; preds = %if.end24
  %pScene = getelementptr inbounds %"class.Assimp::MDLImporter", ptr %this1, i32 0, i32 8
  %41 = load ptr, ptr %pScene, align 8
  %mNumTextures = getelementptr inbounds %struct.aiScene, ptr %41, i32 0, i32 8
  %42 = load i32, ptr %mNumTextures, align 8
  %tobool29 = icmp ne i32 %42, 0
  br i1 %tobool29, label %if.else38, label %if.then30

if.then30:                                        ; preds = %if.then28
  %pScene31 = getelementptr inbounds %"class.Assimp::MDLImporter", ptr %this1, i32 0, i32 8
  %43 = load ptr, ptr %pScene31, align 8
  %mNumTextures32 = getelementptr inbounds %struct.aiScene, ptr %43, i32 0, i32 8
  store i32 1, ptr %mNumTextures32, align 8
  %call33 = call noalias noundef nonnull ptr @_Znam(i64 noundef 8) #16
  %pScene34 = getelementptr inbounds %"class.Assimp::MDLImporter", ptr %this1, i32 0, i32 8
  %44 = load ptr, ptr %pScene34, align 8
  %mTextures = getelementptr inbounds %struct.aiScene, ptr %44, i32 0, i32 9
  store ptr %call33, ptr %mTextures, align 8
  %45 = load ptr, ptr %pcNew, align 8
  %pScene35 = getelementptr inbounds %"class.Assimp::MDLImporter", ptr %this1, i32 0, i32 8
  %46 = load ptr, ptr %pScene35, align 8
  %mTextures36 = getelementptr inbounds %struct.aiScene, ptr %46, i32 0, i32 9
  %47 = load ptr, ptr %mTextures36, align 8
  %arrayidx37 = getelementptr inbounds ptr, ptr %47, i64 0
  store ptr %45, ptr %arrayidx37, align 8
  br label %if.end65

if.else38:                                        ; preds = %if.then28
  %pScene39 = getelementptr inbounds %"class.Assimp::MDLImporter", ptr %this1, i32 0, i32 8
  %48 = load ptr, ptr %pScene39, align 8
  %mTextures40 = getelementptr inbounds %struct.aiScene, ptr %48, i32 0, i32 9
  %49 = load ptr, ptr %mTextures40, align 8
  store ptr %49, ptr %pc, align 8
  %pScene41 = getelementptr inbounds %"class.Assimp::MDLImporter", ptr %this1, i32 0, i32 8
  %50 = load ptr, ptr %pScene41, align 8
  %mNumTextures42 = getelementptr inbounds %struct.aiScene, ptr %50, i32 0, i32 8
  %51 = load i32, ptr %mNumTextures42, align 8
  %add43 = add i32 %51, 1
  %conv44 = zext i32 %add43 to i64
  %52 = call { i64, i1 } @llvm.umul.with.overflow.i64(i64 %conv44, i64 8)
  %53 = extractvalue { i64, i1 } %52, 1
  %54 = extractvalue { i64, i1 } %52, 0
  %55 = select i1 %53, i64 -1, i64 %54
  %call45 = call noalias noundef nonnull ptr @_Znam(i64 noundef %55) #16
  %pScene46 = getelementptr inbounds %"class.Assimp::MDLImporter", ptr %this1, i32 0, i32 8
  %56 = load ptr, ptr %pScene46, align 8
  %mTextures47 = getelementptr inbounds %struct.aiScene, ptr %56, i32 0, i32 9
  store ptr %call45, ptr %mTextures47, align 8
  store i32 0, ptr %i, align 4
  br label %for.cond

for.cond:                                         ; preds = %for.inc, %if.else38
  %57 = load i32, ptr %i, align 4
  %pScene48 = getelementptr inbounds %"class.Assimp::MDLImporter", ptr %this1, i32 0, i32 8
  %58 = load ptr, ptr %pScene48, align 8
  %mNumTextures49 = getelementptr inbounds %struct.aiScene, ptr %58, i32 0, i32 8
  %59 = load i32, ptr %mNumTextures49, align 8
  %cmp50 = icmp ult i32 %57, %59
  br i1 %cmp50, label %for.body, label %for.end

for.body:                                         ; preds = %for.cond
  %60 = load ptr, ptr %pc, align 8
  %61 = load i32, ptr %i, align 4
  %idxprom = zext i32 %61 to i64
  %arrayidx51 = getelementptr inbounds ptr, ptr %60, i64 %idxprom
  %62 = load ptr, ptr %arrayidx51, align 8
  %pScene52 = getelementptr inbounds %"class.Assimp::MDLImporter", ptr %this1, i32 0, i32 8
  %63 = load ptr, ptr %pScene52, align 8
  %mTextures53 = getelementptr inbounds %struct.aiScene, ptr %63, i32 0, i32 9
  %64 = load ptr, ptr %mTextures53, align 8
  %65 = load i32, ptr %i, align 4
  %idxprom54 = zext i32 %65 to i64
  %arrayidx55 = getelementptr inbounds ptr, ptr %64, i64 %idxprom54
  store ptr %62, ptr %arrayidx55, align 8
  br label %for.inc

for.inc:                                          ; preds = %for.body
  %66 = load i32, ptr %i, align 4
  %inc = add i32 %66, 1
  store i32 %inc, ptr %i, align 4
  br label %for.cond, !llvm.loop !14

for.end:                                          ; preds = %for.cond
  %67 = load ptr, ptr %pcNew, align 8
  %pScene56 = getelementptr inbounds %"class.Assimp::MDLImporter", ptr %this1, i32 0, i32 8
  %68 = load ptr, ptr %pScene56, align 8
  %mTextures57 = getelementptr inbounds %struct.aiScene, ptr %68, i32 0, i32 9
  %69 = load ptr, ptr %mTextures57, align 8
  %pScene58 = getelementptr inbounds %"class.Assimp::MDLImporter", ptr %this1, i32 0, i32 8
  %70 = load ptr, ptr %pScene58, align 8
  %mNumTextures59 = getelementptr inbounds %struct.aiScene, ptr %70, i32 0, i32 8
  %71 = load i32, ptr %mNumTextures59, align 8
  %idxprom60 = zext i32 %71 to i64
  %arrayidx61 = getelementptr inbounds ptr, ptr %69, i64 %idxprom60
  store ptr %67, ptr %arrayidx61, align 8
  %pScene62 = getelementptr inbounds %"class.Assimp::MDLImporter", ptr %this1, i32 0, i32 8
  %72 = load ptr, ptr %pScene62, align 8
  %mNumTextures63 = getelementptr inbounds %struct.aiScene, ptr %72, i32 0, i32 8
  %73 = load i32, ptr %mNumTextures63, align 8
  %inc64 = add i32 %73, 1
  store i32 %inc64, ptr %mNumTextures63, align 8
  %74 = load ptr, ptr %pc, align 8
  %isnull = icmp eq ptr %74, null
  br i1 %isnull, label %delete.end, label %delete.notnull

delete.notnull:                                   ; preds = %for.end
  call void @_ZdaPv(ptr noundef %74) #18
  br label %delete.end

delete.end:                                       ; preds = %delete.notnull, %for.end
  br label %if.end65

if.end65:                                         ; preds = %delete.end, %if.then30
  br label %if.end71

if.else66:                                        ; preds = %if.end24
  %75 = load ptr, ptr %pcNew, align 8
  %pcData67 = getelementptr inbounds %struct.aiTexture, ptr %75, i32 0, i32 4
  store ptr null, ptr %pcData67, align 8
  %76 = load ptr, ptr %pcNew, align 8
  %isnull68 = icmp eq ptr %76, null
  br i1 %isnull68, label %delete.end70, label %delete.notnull69

delete.notnull69:                                 ; preds = %if.else66
  call void @_ZN9aiTextureD2Ev(ptr noundef nonnull align 8 dereferenceable(1060) %76) #15
  call void @_ZdlPv(ptr noundef %76) #18
  br label %delete.end70

delete.end70:                                     ; preds = %delete.notnull69, %if.else66
  br label %if.end71

if.end71:                                         ; preds = %delete.end70, %if.end65
  ret void
}