; Function Attrs: mustprogress uwtable
define hidden void @_ZN6Assimp11MDLImporter23CreateTexture_3DGS_MDL5EPKhjPj(ptr noundef nonnull align 8 dereferenceable(158) %this, ptr noundef %szData, i32 noundef %iType, ptr nocapture noundef %piSkip) local_unnamed_addr #0 align 2 {
entry:
  %0 = load i32, ptr %piSkip, align 4
  %cmp = icmp eq i32 %0, -1
  %call = tail call noalias noundef nonnull dereferenceable(1064) ptr @_Znwm(i64 noundef 1064) #17
  %pcData.i = getelementptr inbounds i8, ptr %call, i64 24
  store ptr null, ptr %pcData.i, align 8
  %mFilename.i = getelementptr inbounds i8, ptr %call, i64 32
  store i32 0, ptr %mFilename.i, align 4
  %data.i.i = getelementptr inbounds i8, ptr %call, i64 36
  store i8 0, ptr %data.i.i, align 4
  tail call void @llvm.memset.p0.i64(ptr noundef nonnull align 8 dereferenceable(17) %call, i8 0, i64 17, i1 false)
  %add.ptr = getelementptr inbounds i8, ptr %szData, i64 8
  tail call void @_ZN6Assimp11MDLImporter9SizeCheckEPKv(ptr noundef nonnull align 8 dereferenceable(158) %this, ptr noundef nonnull %add.ptr)
  %mHeight = getelementptr inbounds i8, ptr %call, i64 4
  %1 = load <2 x i32>, ptr %szData, align 4
  store <2 x i32> %1, ptr %call, align 8
  br i1 %cmp, label %if.end, label %if.end.thread

if.end:                                           ; preds = %entry
  store ptr inttoptr (i64 -1 to ptr), ptr %pcData.i, align 8
  %cmp4 = icmp eq i32 %iType, 6
  br i1 %cmp4, label %if.else66.critedge, label %if.end24

if.end.thread:                                    ; preds = %entry
  %cmp439 = icmp eq i32 %iType, 6
  br i1 %cmp439, label %if.end24.thread, label %if.end24

if.end24.thread:                                  ; preds = %if.end.thread
  %2 = extractelement <2 x i32> %1, i64 0
  store i32 %2, ptr %piSkip, align 4
  %idx.ext40 = zext i32 %2 to i64
  %add.ptr741 = getelementptr inbounds i8, ptr %add.ptr, i64 %idx.ext40
  tail call void @_ZN6Assimp11MDLImporter9SizeCheckEPKv(ptr noundef nonnull align 8 dereferenceable(158) %this, ptr noundef nonnull %add.ptr741)
  store i32 0, ptr %mHeight, align 4
  %achFormatHint = getelementptr inbounds i8, ptr %call, i64 8
  store <4 x i8> <i8 100, i8 100, i8 115, i8 0>, ptr %achFormatHint, align 8
  %3 = load i32, ptr %call, align 8
  %conv = zext i32 %3 to i64
  %call18 = tail call noalias noundef nonnull ptr @_Znam(i64 noundef %conv) #17
  store ptr %call18, ptr %pcData.i, align 8
  tail call void @llvm.memcpy.p0.p0.i64(ptr nonnull align 1 %call18, ptr nonnull align 1 %add.ptr, i64 %conv, i1 false)
  %4 = load i32, ptr %piSkip, align 4
  %add42 = add i32 %4, 8
  store i32 %add42, ptr %piSkip, align 4
  br label %if.then28

if.end24:                                         ; preds = %if.end, %if.end.thread
  tail call void @_ZN6Assimp11MDLImporter21ParseTextureColorDataEPKhjPjP9aiTexture(ptr noundef nonnull align 8 dereferenceable(158) %this, ptr noundef nonnull %add.ptr, i32 noundef %iType, ptr noundef nonnull %piSkip, ptr noundef nonnull %call)
  %5 = load i32, ptr %piSkip, align 4
  %add = add i32 %5, 8
  store i32 %add, ptr %piSkip, align 4
  br i1 %cmp, label %_ZN9aiTextureD2Ev.exit, label %if.then28

if.then28:                                        ; preds = %if.end24.thread, %if.end24
  %pScene = getelementptr inbounds i8, ptr %this, i64 136
  %6 = load ptr, ptr %pScene, align 8
  %mNumTextures = getelementptr inbounds i8, ptr %6, i64 64
  %7 = load i32, ptr %mNumTextures, align 8
  %tobool29.not = icmp eq i32 %7, 0
  br i1 %tobool29.not, label %if.then30, label %if.else38

if.then30:                                        ; preds = %if.then28
  store i32 1, ptr %mNumTextures, align 8
  %call33 = tail call noalias noundef nonnull dereferenceable(8) ptr @_Znam(i64 noundef 8) #17
  %8 = load ptr, ptr %pScene, align 8
  %mTextures = getelementptr inbounds i8, ptr %8, i64 72
  store ptr %call33, ptr %mTextures, align 8
  %9 = load ptr, ptr %pScene, align 8
  %mTextures36 = getelementptr inbounds i8, ptr %9, i64 72
  %10 = load ptr, ptr %mTextures36, align 8
  store ptr %call, ptr %10, align 8
  br label %if.end71

if.else38:                                        ; preds = %if.then28
  %mTextures40 = getelementptr inbounds i8, ptr %6, i64 72
  %11 = load ptr, ptr %mTextures40, align 8
  %add43 = add i32 %7, 1
  %conv44 = zext i32 %add43 to i64
  %12 = shl nuw nsw i64 %conv44, 3
  %call45 = tail call noalias noundef nonnull ptr @_Znam(i64 noundef %12) #17
  store ptr %call45, ptr %mTextures40, align 8
  %13 = load ptr, ptr %pScene, align 8
  %mNumTextures4944 = getelementptr inbounds i8, ptr %13, i64 64
  %14 = load i32, ptr %mNumTextures4944, align 8
  %cmp5045.not = icmp eq i32 %14, 0
  br i1 %cmp5045.not, label %for.end, label %for.body

for.body:                                         ; preds = %if.else38, %for.body
  %indvars.iv = phi i64 [ %indvars.iv.next, %for.body ], [ 0, %if.else38 ]
  %15 = phi ptr [ %18, %for.body ], [ %13, %if.else38 ]
  %arrayidx51 = getelementptr inbounds ptr, ptr %11, i64 %indvars.iv
  %16 = load ptr, ptr %arrayidx51, align 8
  %mTextures53 = getelementptr inbounds i8, ptr %15, i64 72
  %17 = load ptr, ptr %mTextures53, align 8
  %arrayidx55 = getelementptr inbounds ptr, ptr %17, i64 %indvars.iv
  store ptr %16, ptr %arrayidx55, align 8
  %indvars.iv.next = add nuw nsw i64 %indvars.iv, 1
  %18 = load ptr, ptr %pScene, align 8
  %mNumTextures49 = getelementptr inbounds i8, ptr %18, i64 64
  %19 = load i32, ptr %mNumTextures49, align 8
  %20 = zext i32 %19 to i64
  %cmp50 = icmp ult i64 %indvars.iv.next, %20
  br i1 %cmp50, label %for.body, label %for.end.loopexit, !llvm.loop !14

for.end.loopexit:                                 ; preds = %for.body
  %21 = zext i32 %19 to i64
  br label %for.end

for.end:                                          ; preds = %if.else38, %for.end.loopexit
  %.lcssa43 = phi ptr [ %18, %for.end.loopexit ], [ %13, %if.else38 ]
  %.lcssa = phi i64 [ %21, %for.end.loopexit ], [ 0, %if.else38 ]
  %mTextures57 = getelementptr inbounds i8, ptr %.lcssa43, i64 72
  %22 = load ptr, ptr %mTextures57, align 8
  %arrayidx61 = getelementptr inbounds ptr, ptr %22, i64 %.lcssa
  store ptr %call, ptr %arrayidx61, align 8
  %23 = load ptr, ptr %pScene, align 8
  %mNumTextures63 = getelementptr inbounds i8, ptr %23, i64 64
  %24 = load i32, ptr %mNumTextures63, align 8
  %inc64 = add i32 %24, 1
  store i32 %inc64, ptr %mNumTextures63, align 8
  %isnull = icmp eq ptr %11, null
  br i1 %isnull, label %if.end71, label %delete.notnull

delete.notnull:                                   ; preds = %for.end
  tail call void @_ZdaPv(ptr noundef nonnull %11) #18
  br label %if.end71

if.else66.critedge:                               ; preds = %if.end
  %25 = extractelement <2 x i32> %1, i64 0
  store i32 %25, ptr %piSkip, align 4
  %idx.ext = zext i32 %25 to i64
  %add.ptr7 = getelementptr inbounds i8, ptr %add.ptr, i64 %idx.ext
  tail call void @_ZN6Assimp11MDLImporter9SizeCheckEPKv(ptr noundef nonnull align 8 dereferenceable(158) %this, ptr noundef nonnull %add.ptr7)
  %26 = load i32, ptr %piSkip, align 4
  %add.c = add i32 %26, 8
  store i32 %add.c, ptr %piSkip, align 4
  br label %_ZN9aiTextureD2Ev.exit

_ZN9aiTextureD2Ev.exit:                           ; preds = %if.end24, %if.else66.critedge
  tail call void @_ZdlPv(ptr noundef nonnull %call) #18
  br label %if.end71

if.end71:                                         ; preds = %_ZN9aiTextureD2Ev.exit, %if.then30, %delete.notnull, %for.end
  ret void
}